target datalayout = "e-m:e-p270:32:32-p271:32:32-p272:64:64-i64:64-i128:128-f80:128-n8:16:32:64-S128"
target triple = "x86_64-pc-linux-gnu"

%struct._proto_node = type { ptr, ptr, ptr, ptr, ptr, ptr, ptr }
%struct.field_info = type { ptr, i32, i32, i32, i32, i32, i32, ptr, ptr, ptr, i32, i32 }

@hf_uncomp_payload = internal global i32 0, align 4
@.str.8 = private unnamed_addr constant [21 x i8] c"Uncompressed Payload\00", align 1
@ett_uncomp_payload = internal global i32 0, align 4
@ett_uncomp_decode = internal global i32 0, align 4

; Function Attrs: inlinehint nounwind null_pointer_is_valid sspstrong uwtable
define internal void @proto_item_set_generated(ptr noundef %0) #3 {
  %2 = alloca ptr, align 8
  store ptr %0, ptr %2, align 8
  %3 = load ptr, ptr %2, align 8
  %4 = icmp ne ptr %3, null
  br i1 %4, label %5, label %24

5:                                                ; preds = %1
  br label %6

6:                                                ; preds = %5
  %7 = load ptr, ptr %2, align 8
  %8 = getelementptr inbounds nuw %struct._proto_node, ptr %7, i32 0, i32 5
  %9 = load ptr, ptr %8, align 8
  %10 = icmp ne ptr %9, null
  br i1 %10, label %11, label %22

11:                                               ; preds = %6
  %12 = load ptr, ptr %2, align 8
  %13 = getelementptr inbounds nuw %struct._proto_node, ptr %12, i32 0, i32 5
  %14 = load ptr, ptr %13, align 8
  %15 = getelementptr inbounds nuw %struct.field_info, ptr %14, i32 0, i32 6
  %16 = load i32, ptr %15, align 4
  %17 = or i32 %16, 2
  %18 = load ptr, ptr %2, align 8
  %19 = getelementptr inbounds nuw %struct._proto_node, ptr %18, i32 0, i32 5
  %20 = load ptr, ptr %19, align 8
  %21 = getelementptr inbounds nuw %struct.field_info, ptr %20, i32 0, i32 6
  store i32 %17, ptr %21, align 4
  br label %22

22:                                               ; preds = %11, %6
  br label %23

23:                                               ; preds = %22
  br label %24

24:                                               ; preds = %23, %1
  ret void
}

; Function Attrs: null_pointer_is_valid sspstrong uwtable
define internal void @try_uncompress(ptr noundef %0, ptr noundef %1, i32 noundef %2, ptr noundef %3) #0 {
  %5 = alloca ptr, align 8
  %6 = alloca ptr, align 8
  %7 = alloca i32, align 4
  %8 = alloca ptr, align 8
  %9 = alloca ptr, align 8
  %10 = alloca ptr, align 8
  %11 = alloca i32, align 4
  %12 = alloca ptr, align 8
  %13 = alloca ptr, align 8
  store ptr %0, ptr %5, align 8
  store ptr %1, ptr %6, align 8
  store i32 %2, ptr %7, align 4
  store ptr %3, ptr %8, align 8
  call void @llvm.lifetime.start.p0(i64 8, ptr %9) #4
  %14 = load ptr, ptr %5, align 8
  %15 = load i32, ptr %7, align 4
  %16 = load ptr, ptr %5, align 8
  %17 = call i32 @tvb_captured_length(ptr noundef %16)
  %18 = load i32, ptr %7, align 4
  %19 = sub i32 %17, %18
  %20 = call ptr @tvb_uncompress_zlib(ptr noundef %14, i32 noundef %15, i32 noundef %19)
  store ptr %20, ptr %9, align 8
  %21 = load ptr, ptr %9, align 8
  %22 = icmp ne ptr %21, null
  br i1 %22, label %23, label %43

23:                                               ; preds = %4
  %24 = load ptr, ptr %6, align 8
  %25 = load ptr, ptr %9, align 8
  call void @add_new_data_source(ptr noundef %24, ptr noundef %25, ptr noundef @.str.8)
  call void @llvm.lifetime.start.p0(i64 8, ptr %10) #4
  %26 = load ptr, ptr %8, align 8
  %27 = load i32, ptr @ett_uncomp_payload, align 4
  %28 = call ptr @proto_item_add_subtree(ptr noundef %26, i32 noundef %27)
  store ptr %28, ptr %10, align 8
  call void @llvm.lifetime.start.p0(i64 4, ptr %11) #4
  %29 = load ptr, ptr %9, align 8
  %30 = call i32 @tvb_captured_length(ptr noundef %29)
  store i32 %30, ptr %11, align 4
  call void @llvm.lifetime.start.p0(i64 8, ptr %12) #4
  %31 = load ptr, ptr %10, align 8
  %32 = load i32, ptr @hf_uncomp_payload, align 4
  %33 = load ptr, ptr %9, align 8
  %34 = load i32, ptr %11, align 4
  %35 = call ptr @proto_tree_add_item(ptr noundef %31, i32 noundef %32, ptr noundef %33, i32 noundef 0, i32 noundef %34, i32 noundef 0)
  store ptr %35, ptr %12, align 8
  %36 = load ptr, ptr %12, align 8
  call void @proto_item_set_generated(ptr noundef %36)
  call void @llvm.lifetime.start.p0(i64 8, ptr %13) #4
  %37 = load ptr, ptr %12, align 8
  %38 = load i32, ptr @ett_uncomp_decode, align 4
  %39 = call ptr @proto_item_add_subtree(ptr noundef %37, i32 noundef %38)
  store ptr %39, ptr %13, align 8
  %40 = load ptr, ptr %9, align 8
  %41 = load ptr, ptr %6, align 8
  %42 = load ptr, ptr %13, align 8
  call void @try_decode_payload(ptr noundef %40, ptr noundef %41, ptr noundef %42)
  call void @llvm.lifetime.end.p0(i64 8, ptr %13) #4
  call void @llvm.lifetime.end.p0(i64 8, ptr %12) #4
  call void @llvm.lifetime.end.p0(i64 4, ptr %11) #4
  call void @llvm.lifetime.end.p0(i64 8, ptr %10) #4
  br label %43

43:                                               ; preds = %23, %4
  call void @llvm.lifetime.end.p0(i64 8, ptr %9) #4
  ret void
}