; Function Attrs: null_pointer_is_valid sspstrong uwtable
define internal fastcc void @try_uncompress(ptr noundef %0, ptr noundef %1, i32 noundef %2, ptr noundef %3) unnamed_addr #0 {
  %5 = tail call i32 @tvb_captured_length(ptr noundef %0)
  %6 = sub i32 %5, %2
  %7 = tail call ptr @tvb_uncompress_zlib(ptr noundef %0, i32 noundef %2, i32 noundef %6)
  %.not = icmp eq ptr %7, null
  br i1 %.not, label %23, label %8

8:                                                ; preds = %4
  tail call void @add_new_data_source(ptr noundef %1, ptr noundef nonnull %7, ptr noundef nonnull @.str.8)
  %9 = load i32, ptr @ett_uncomp_payload, align 4
  %10 = tail call ptr @proto_item_add_subtree(ptr noundef %3, i32 noundef %9)
  %11 = tail call i32 @tvb_captured_length(ptr noundef nonnull %7)
  %12 = load i32, ptr @hf_uncomp_payload, align 4
  %13 = tail call ptr @proto_tree_add_item(ptr noundef %10, i32 noundef %12, ptr noundef nonnull %7, i32 noundef 0, i32 noundef %11, i32 noundef 0)
  %.not.i = icmp eq ptr %13, null
  br i1 %.not.i, label %proto_item_set_generated.exit, label %14

14:                                               ; preds = %8
  %15 = getelementptr inbounds nuw i8, ptr %13, i64 40
  %16 = load ptr, ptr %15, align 8
  %.not5.i = icmp eq ptr %16, null
  br i1 %.not5.i, label %proto_item_set_generated.exit, label %17

17:                                               ; preds = %14
  %18 = getelementptr inbounds nuw i8, ptr %16, i64 28
  %19 = load i32, ptr %18, align 4
  %20 = or i32 %19, 2
  store i32 %20, ptr %18, align 4
  br label %proto_item_set_generated.exit

proto_item_set_generated.exit:                    ; preds = %8, %14, %17
  %21 = load i32, ptr @ett_uncomp_decode, align 4
  %22 = tail call ptr @proto_item_add_subtree(ptr noundef %13, i32 noundef %21)
  tail call fastcc void @try_decode_payload(ptr noundef nonnull %7, ptr noundef %1, ptr noundef %22)
  br label %23

23:                                               ; preds = %proto_item_set_generated.exit, %4
  ret void
}